; ModuleID = '45/2847.c'
source_filename = "45/2847.c"
target datalayout = "e-m:e-p270:32:32-p271:32:32-p272:64:64-i64:64-f80:128-n8:16:32:64-S128"
target triple = "x86_64-pc-linux-gnu"

@.str = private unnamed_addr constant [3 x i8] c"%s\00", align 1
@.str.1 = private unnamed_addr constant [3 x i8] c"%d\00", align 1

; Function Attrs: noinline nounwind uwtable
define dso_local i32 @main() #0 {
  %1 = alloca i32, align 4
  %2 = alloca [60 x i8], align 16
  %3 = alloca [60 x i8], align 16
  %4 = alloca i32, align 4
  %5 = alloca i32, align 4
  %6 = alloca i32, align 4
  %7 = alloca i32, align 4
  %8 = alloca i32, align 4
  store i32 0, i32* %1, align 4
  %9 = call i32 (i8*, ...) @__isoc99_scanf(i8* getelementptr inbounds ([3 x i8], [3 x i8]* @.str, i64 0, i64 0), [60 x i8]* %2)
  %10 = call i32 (i8*, ...) @__isoc99_scanf(i8* getelementptr inbounds ([3 x i8], [3 x i8]* @.str, i64 0, i64 0), [60 x i8]* %3)
  %11 = getelementptr inbounds [60 x i8], [60 x i8]* %2, i64 0, i64 0
  %12 = call i64 @strlen(i8* %11) #3
  %13 = trunc i64 %12 to i32
  store i32 %13, i32* %4, align 4
  %14 = getelementptr inbounds [60 x i8], [60 x i8]* %3, i64 0, i64 0
  %15 = call i64 @strlen(i8* %14) #3
  %16 = trunc i64 %15 to i32
  store i32 %16, i32* %5, align 4
  store i32 0, i32* %7, align 4
  store i32 0, i32* %8, align 4
  store i32 0, i32* %6, align 4
  br label %17

17:                                               ; preds = %45, %0
  %18 = load i32, i32* %6, align 4
  %19 = load i32, i32* %5, align 4
  %20 = icmp slt i32 %18, %19
  br i1 %20, label %21, label %48

21:                                               ; preds = %17
  %22 = load i32, i32* %6, align 4
  %23 = sext i32 %22 to i64
  %24 = getelementptr inbounds [60 x i8], [60 x i8]* %3, i64 0, i64 %23
  %25 = load i8, i8* %24, align 1
  %26 = sext i8 %25 to i32
  %27 = load i32, i32* %7, align 4
  %28 = sext i32 %27 to i64
  %29 = getelementptr inbounds [60 x i8], [60 x i8]* %2, i64 0, i64 %28
  %30 = load i8, i8* %29, align 1
  %31 = sext i8 %30 to i32
  %32 = icmp eq i32 %26, %31
  br i1 %32, label %33, label %38

33:                                               ; preds = %21
  %34 = load i32, i32* %8, align 4
  %35 = add nsw i32 %34, 1
  store i32 %35, i32* %8, align 4
  %36 = load i32, i32* %7, align 4
  %37 = add nsw i32 %36, 1
  store i32 %37, i32* %7, align 4
  br label %39

38:                                               ; preds = %21
  store i32 0, i32* %8, align 4
  store i32 0, i32* %7, align 4
  br label %39

39:                                               ; preds = %38, %33
  %40 = load i32, i32* %8, align 4
  %41 = load i32, i32* %4, align 4
  %42 = icmp eq i32 %40, %41
  br i1 %42, label %43, label %44

43:                                               ; preds = %39
  br label %48

44:                                               ; preds = %39
  br label %45

45:                                               ; preds = %44
  %46 = load i32, i32* %6, align 4
  %47 = add nsw i32 %46, 1
  store i32 %47, i32* %6, align 4
  br label %17

48:                                               ; preds = %43, %17
  %49 = load i32, i32* %6, align 4
  %50 = load i32, i32* %4, align 4
  %51 = sub nsw i32 %49, %50
  %52 = add nsw i32 %51, 1
  store i32 %52, i32* %6, align 4
  %53 = load i32, i32* %6, align 4
  %54 = call i32 (i8*, ...) @printf(i8* getelementptr inbounds ([3 x i8], [3 x i8]* @.str.1, i64 0, i64 0), i32 %53)
  ret i32 0
}

declare dso_local i32 @__isoc99_scanf(i8*, ...) #1

; Function Attrs: nounwind readonly
declare dso_local i64 @strlen(i8*) #2

declare dso_local i32 @printf(i8*, ...) #1


!llvm.module.flags = !{!0}
!llvm.ident = !{!1}

!0 = !{i32 1, !"wchar_size", i32 4}
!1 = !{!"clang version 10.0.0-4ubuntu1 "}
