; ModuleID = 'source-C-CXX/44/2847.c'
source_filename = "source-C-CXX/44/2847.c"
target datalayout = "e-m:e-p270:32:32-p271:32:32-p272:64:64-i64:64-f80:128-n8:16:32:64-S128"
target triple = "x86_64-pc-linux-gnu"

@.str = private unnamed_addr constant [3 x i8] c"%s\00", align 1
@.str.1 = private unnamed_addr constant [3 x i8] c"%d\00", align 1

; Function Attrs: nofree nounwind sspstrong uwtable
define dso_local i32 @main() local_unnamed_addr #0 {
  %1 = alloca [60 x i8], align 16
  %2 = alloca [60 x i8], align 16
  %3 = getelementptr inbounds [60 x i8], [60 x i8]* %1, i64 0, i64 0
  call void @llvm.lifetime.start.p0i8(i64 60, i8* nonnull %3) #4
  %4 = getelementptr inbounds [60 x i8], [60 x i8]* %2, i64 0, i64 0
  call void @llvm.lifetime.start.p0i8(i64 60, i8* nonnull %4) #4
  %5 = call i32 (i8*, ...) @__isoc99_scanf(i8* getelementptr inbounds ([3 x i8], [3 x i8]* @.str, i64 0, i64 0), [60 x i8]* nonnull %1)
  %6 = call i32 (i8*, ...) @__isoc99_scanf(i8* getelementptr inbounds ([3 x i8], [3 x i8]* @.str, i64 0, i64 0), [60 x i8]* nonnull %2)
  %7 = call i64 @strlen(i8* noundef nonnull %3) #5
  %8 = trunc i64 %7 to i32
  %9 = call i64 @strlen(i8* noundef nonnull %4) #5
  %10 = trunc i64 %9 to i32
  %11 = icmp sgt i32 %10, 0
  br i1 %11, label %12, label %34

12:                                               ; preds = %0
  %13 = and i64 %9, 4294967295
  br label %14

14:                                               ; preds = %12, %27
  %15 = phi i64 [ 0, %12 ], [ %30, %27 ]
  %16 = phi i32 [ 0, %12 ], [ %25, %27 ]
  %17 = phi i32 [ 0, %12 ], [ %29, %27 ]
  %18 = getelementptr inbounds [60 x i8], [60 x i8]* %2, i64 0, i64 %15
  %19 = load i8, i8* %18, align 1, !tbaa !5
  %20 = sext i32 %17 to i64
  %21 = getelementptr inbounds [60 x i8], [60 x i8]* %1, i64 0, i64 %20
  %22 = load i8, i8* %21, align 1, !tbaa !5
  %23 = icmp eq i8 %19, %22
  %24 = add nsw i32 %16, 1
  %25 = select i1 %23, i32 %24, i32 0
  %26 = icmp eq i32 %25, %8
  br i1 %26, label %32, label %27

27:                                               ; preds = %14
  %28 = add nsw i32 %17, 1
  %29 = select i1 %23, i32 %28, i32 0
  %30 = add nuw nsw i64 %15, 1
  %31 = icmp eq i64 %30, %13
  br i1 %31, label %34, label %14, !llvm.loop !8

32:                                               ; preds = %14
  %33 = trunc i64 %15 to i32
  br label %34

34:                                               ; preds = %27, %32, %0
  %35 = phi i32 [ 0, %0 ], [ %33, %32 ], [ %10, %27 ]
  %36 = sub i32 1, %8
  %37 = add i32 %36, %35
  %38 = call i32 (i8*, ...) @printf(i8* nonnull dereferenceable(1) getelementptr inbounds ([3 x i8], [3 x i8]* @.str.1, i64 0, i64 0), i32 %37)
  call void @llvm.lifetime.end.p0i8(i64 60, i8* nonnull %4) #4
  call void @llvm.lifetime.end.p0i8(i64 60, i8* nonnull %3) #4
  ret i32 0
}

; Function Attrs: argmemonly mustprogress nofree nosync nounwind willreturn
declare void @llvm.lifetime.start.p0i8(i64 immarg, i8* nocapture) #1

; Function Attrs: nofree nounwind
declare noundef i32 @__isoc99_scanf(i8* nocapture noundef readonly, ...) local_unnamed_addr #2

; Function Attrs: argmemonly mustprogress nofree nounwind readonly willreturn
declare i64 @strlen(i8* nocapture) local_unnamed_addr #3

; Function Attrs: nofree nounwind
declare noundef i32 @printf(i8* nocapture noundef readonly, ...) local_unnamed_addr #2

; Function Attrs: argmemonly mustprogress nofree nosync nounwind willreturn
declare void @llvm.lifetime.end.p0i8(i64 immarg, i8* nocapture) #1


!llvm.module.flags = !{!0, !1, !2, !3}
!llvm.ident = !{!4}

!0 = !{i32 1, !"wchar_size", i32 4}
!1 = !{i32 7, !"PIC Level", i32 2}
!2 = !{i32 7, !"PIE Level", i32 2}
!3 = !{i32 7, !"uwtable", i32 1}
!4 = !{!"clang version 13.0.0"}
!5 = !{!6, !6, i64 0}
!6 = !{!"omnipotent char", !7, i64 0}
!7 = !{!"Simple C/C++ TBAA"}
!8 = distinct !{!8, !9}
!9 = !{!"llvm.loop.mustprogress"}
